; Function Attrs: mustprogress uwtable
define void @ggml_backend_cpu_set_threadpool(ptr noundef readonly %0, ptr noundef %1) #0 {
  %.not.i = icmp eq ptr %0, null
  br i1 %.not.i, label %ggml_backend_is_cpu.exit.thread, label %ggml_backend_is_cpu.exit

ggml_backend_is_cpu.exit:                         ; preds = %2
  %3 = load ptr, ptr %0, align 8, !tbaa !22
  %4 = tail call zeroext i1 @ggml_guid_matches(ptr noundef %3, ptr noundef nonnull @_ZZL21ggml_backend_cpu_guidvE4guid)
  br i1 %4, label %5, label %ggml_backend_is_cpu.exit.thread

ggml_backend_is_cpu.exit.thread:                  ; preds = %2, %ggml_backend_is_cpu.exit
  tail call void (ptr, i32, ptr, ...) @ggml_abort(ptr noundef nonnull @.str.2, i32 noundef 235, ptr noundef nonnull @.str.3, ptr noundef nonnull @.str.4) #26
  unreachable

5:                                                ; preds = %ggml_backend_is_cpu.exit
  %6 = getelementptr inbounds nuw i8, ptr %0, i64 120
  %7 = load ptr, ptr %6, align 8, !tbaa !29
  %8 = getelementptr inbounds nuw i8, ptr %7, i64 8
  %9 = load ptr, ptr %8, align 8, !tbaa !31
  %.not = icmp eq ptr %9, null
  %.not8 = icmp eq ptr %9, %1
  %or.cond = or i1 %.not, %.not8
  br i1 %or.cond, label %11, label %10

10:                                               ; preds = %5
  tail call void @ggml_threadpool_pause(ptr noundef nonnull %9)
  br label %11

11:                                               ; preds = %10, %5
  store ptr %1, ptr %8, align 8, !tbaa !31
  ret void
}